target datalayout = "e-m:e-p270:32:32-p271:32:32-p272:64:64-i64:64-i128:128-f80:128-n8:16:32:64-S128"
target triple = "x86_64-pc-linux-gnu"

%struct.sockaddr = type { i16, [14 x i8] }
%struct.sockaddr_in6 = type { i16, i16, i32, %struct.in6_addr, i32 }
%struct.in6_addr = type { %union.anon }
%union.anon = type { [4 x i32] }

; Function Attrs: nounwind uwtable
define dso_local i32 @Curl_ipv6_scope(ptr noundef %0) #0 {
  %2 = alloca i32, align 4
  %3 = alloca ptr, align 8
  %4 = alloca ptr, align 8
  %5 = alloca ptr, align 8
  %6 = alloca i16, align 2
  store ptr %0, ptr %3, align 8
  %7 = load ptr, ptr %3, align 8
  %8 = getelementptr inbounds %struct.sockaddr, ptr %7, i32 0, i32 0
  %9 = load i16, ptr %8, align 2
  %10 = zext i16 %9 to i32
  %11 = icmp eq i32 %10, 10
  br i1 %11, label %12, label %126

12:                                               ; preds = %1
  %13 = load ptr, ptr %3, align 8
  store ptr %13, ptr %4, align 8
  %14 = load ptr, ptr %4, align 8
  %15 = getelementptr inbounds %struct.sockaddr_in6, ptr %14, i32 0, i32 3
  %16 = getelementptr inbounds %struct.in6_addr, ptr %15, i32 0, i32 0
  %17 = getelementptr inbounds [16 x i8], ptr %16, i64 0, i64 0
  store ptr %17, ptr %5, align 8
  %18 = load ptr, ptr %5, align 8
  %19 = getelementptr inbounds i8, ptr %18, i64 0
  %20 = load i8, ptr %19, align 1
  %21 = zext i8 %20 to i32
  %22 = shl i32 %21, 8
  %23 = load ptr, ptr %5, align 8
  %24 = getelementptr inbounds i8, ptr %23, i64 1
  %25 = load i8, ptr %24, align 1
  %26 = zext i8 %25 to i32
  %27 = or i32 %22, %26
  %28 = trunc i32 %27 to i16
  store i16 %28, ptr %6, align 2
  %29 = load ptr, ptr %5, align 8
  %30 = getelementptr inbounds i8, ptr %29, i64 0
  %31 = load i8, ptr %30, align 1
  %32 = zext i8 %31 to i32
  %33 = and i32 %32, 254
  %34 = icmp eq i32 %33, 252
  br i1 %34, label %35, label %36

35:                                               ; preds = %12
  store i32 3, ptr %2, align 4
  br label %127

36:                                               ; preds = %12
  %37 = load i16, ptr %6, align 2
  %38 = zext i16 %37 to i32
  %39 = and i32 %38, 65472
  switch i32 %39, label %124 [
    i32 65152, label %40
    i32 65216, label %41
    i32 0, label %42
  ]

40:                                               ; preds = %36
  store i32 1, ptr %2, align 4
  br label %127

41:                                               ; preds = %36
  store i32 2, ptr %2, align 4
  br label %127

42:                                               ; preds = %36
  %43 = load ptr, ptr %5, align 8
  %44 = getelementptr inbounds i8, ptr %43, i64 1
  %45 = load i8, ptr %44, align 1
  %46 = zext i8 %45 to i32
  %47 = load ptr, ptr %5, align 8
  %48 = getelementptr inbounds i8, ptr %47, i64 2
  %49 = load i8, ptr %48, align 1
  %50 = zext i8 %49 to i32
  %51 = or i32 %46, %50
  %52 = load ptr, ptr %5, align 8
  %53 = getelementptr inbounds i8, ptr %52, i64 3
  %54 = load i8, ptr %53, align 1
  %55 = zext i8 %54 to i32
  %56 = or i32 %51, %55
  %57 = load ptr, ptr %5, align 8
  %58 = getelementptr inbounds i8, ptr %57, i64 4
  %59 = load i8, ptr %58, align 1
  %60 = zext i8 %59 to i32
  %61 = or i32 %56, %60
  %62 = load ptr, ptr %5, align 8
  %63 = getelementptr inbounds i8, ptr %62, i64 5
  %64 = load i8, ptr %63, align 1
  %65 = zext i8 %64 to i32
  %66 = or i32 %61, %65
  %67 = load ptr, ptr %5, align 8
  %68 = getelementptr inbounds i8, ptr %67, i64 6
  %69 = load i8, ptr %68, align 1
  %70 = zext i8 %69 to i32
  %71 = or i32 %66, %70
  %72 = load ptr, ptr %5, align 8
  %73 = getelementptr inbounds i8, ptr %72, i64 7
  %74 = load i8, ptr %73, align 1
  %75 = zext i8 %74 to i32
  %76 = or i32 %71, %75
  %77 = load ptr, ptr %5, align 8
  %78 = getelementptr inbounds i8, ptr %77, i64 8
  %79 = load i8, ptr %78, align 1
  %80 = zext i8 %79 to i32
  %81 = or i32 %76, %80
  %82 = load ptr, ptr %5, align 8
  %83 = getelementptr inbounds i8, ptr %82, i64 9
  %84 = load i8, ptr %83, align 1
  %85 = zext i8 %84 to i32
  %86 = or i32 %81, %85
  %87 = load ptr, ptr %5, align 8
  %88 = getelementptr inbounds i8, ptr %87, i64 10
  %89 = load i8, ptr %88, align 1
  %90 = zext i8 %89 to i32
  %91 = or i32 %86, %90
  %92 = load ptr, ptr %5, align 8
  %93 = getelementptr inbounds i8, ptr %92, i64 11
  %94 = load i8, ptr %93, align 1
  %95 = zext i8 %94 to i32
  %96 = or i32 %91, %95
  %97 = load ptr, ptr %5, align 8
  %98 = getelementptr inbounds i8, ptr %97, i64 12
  %99 = load i8, ptr %98, align 1
  %100 = zext i8 %99 to i32
  %101 = or i32 %96, %100
  %102 = load ptr, ptr %5, align 8
  %103 = getelementptr inbounds i8, ptr %102, i64 13
  %104 = load i8, ptr %103, align 1
  %105 = zext i8 %104 to i32
  %106 = or i32 %101, %105
  %107 = load ptr, ptr %5, align 8
  %108 = getelementptr inbounds i8, ptr %107, i64 14
  %109 = load i8, ptr %108, align 1
  %110 = zext i8 %109 to i32
  %111 = or i32 %106, %110
  %112 = trunc i32 %111 to i16
  store i16 %112, ptr %6, align 2
  %113 = load i16, ptr %6, align 2
  %114 = zext i16 %113 to i32
  %115 = icmp ne i32 %114, 0
  br i1 %115, label %122, label %116

116:                                              ; preds = %42
  %117 = load ptr, ptr %5, align 8
  %118 = getelementptr inbounds i8, ptr %117, i64 15
  %119 = load i8, ptr %118, align 1
  %120 = zext i8 %119 to i32
  %121 = icmp ne i32 %120, 1
  br i1 %121, label %122, label %123

122:                                              ; preds = %116, %42
  br label %125

123:                                              ; preds = %116
  store i32 4, ptr %2, align 4
  br label %127

124:                                              ; preds = %36
  br label %125

125:                                              ; preds = %124, %122
  br label %126

126:                                              ; preds = %125, %1
  store i32 0, ptr %2, align 4
  br label %127

127:                                              ; preds = %126, %123, %41, %40, %35
  %128 = load i32, ptr %2, align 4
  ret i32 %128
}